target datalayout = "e-m:e-p270:32:32-p271:32:32-p272:64:64-i64:64-i128:128-f80:128-n8:16:32:64-S128"
target triple = "x86_64-pc-linux-gnu"

%struct.lxb_html_tree = type { ptr, ptr, ptr, ptr, ptr, ptr, ptr, %struct.lxb_html_tree_pending_table_t, ptr, i8, i8, i8, i8, i8, i8, ptr, ptr, ptr, i32, i64 }
%struct.lxb_html_tree_pending_table_t = type { ptr, i8 }

; Function Attrs: inlinehint nounwind uwtable
define internal ptr @lxb_html_tree_insert_html_element(ptr noundef %0, ptr noundef %1) #3 {
  %3 = alloca ptr, align 8
  %4 = alloca ptr, align 8
  store ptr %0, ptr %3, align 8, !tbaa !4
  store ptr %1, ptr %4, align 8, !tbaa !9
  %5 = load ptr, ptr %3, align 8, !tbaa !4
  %6 = load ptr, ptr %4, align 8, !tbaa !9
  %7 = call ptr @lxb_html_tree_insert_foreign_element(ptr noundef %5, ptr noundef %6, i64 noundef 2)
  ret ptr %7
}

; Function Attrs: inlinehint nounwind uwtable
define internal zeroext i1 @lxb_html_tree_insertion_mode_in_body_select(ptr noundef %0, ptr noundef %1) #3 {
  %3 = alloca i1, align 1
  %4 = alloca ptr, align 8
  %5 = alloca ptr, align 8
  %6 = alloca ptr, align 8
  %7 = alloca i32, align 4
  store ptr %0, ptr %4, align 8, !tbaa !4
  store ptr %1, ptr %5, align 8, !tbaa !9
  call void @llvm.lifetime.start.p0(i64 8, ptr %6) #5
  %8 = load ptr, ptr %4, align 8, !tbaa !4
  %9 = call i32 @lxb_html_tree_active_formatting_reconstruct_elements(ptr noundef %8)
  %10 = load ptr, ptr %4, align 8, !tbaa !4
  %11 = getelementptr inbounds nuw %struct.lxb_html_tree, ptr %10, i32 0, i32 18
  store i32 %9, ptr %11, align 8, !tbaa !25
  %12 = load ptr, ptr %4, align 8, !tbaa !4
  %13 = getelementptr inbounds nuw %struct.lxb_html_tree, ptr %12, i32 0, i32 18
  %14 = load i32, ptr %13, align 8, !tbaa !25
  %15 = icmp ne i32 %14, 0
  br i1 %15, label %16, label %19

16:                                               ; preds = %2
  %17 = load ptr, ptr %4, align 8, !tbaa !4
  %18 = call zeroext i1 @lxb_html_tree_process_abort(ptr noundef %17)
  store i1 %18, ptr %3, align 1
  store i32 1, ptr %7, align 4
  br label %64

19:                                               ; preds = %2
  %20 = load ptr, ptr %4, align 8, !tbaa !4
  %21 = load ptr, ptr %5, align 8, !tbaa !9
  %22 = call ptr @lxb_html_tree_insert_html_element(ptr noundef %20, ptr noundef %21)
  store ptr %22, ptr %6, align 8, !tbaa !40
  %23 = load ptr, ptr %6, align 8, !tbaa !40
  %24 = icmp eq ptr %23, null
  br i1 %24, label %25, label %30

25:                                               ; preds = %19
  %26 = load ptr, ptr %4, align 8, !tbaa !4
  %27 = getelementptr inbounds nuw %struct.lxb_html_tree, ptr %26, i32 0, i32 18
  store i32 2, ptr %27, align 8, !tbaa !25
  %28 = load ptr, ptr %4, align 8, !tbaa !4
  %29 = call zeroext i1 @lxb_html_tree_process_abort(ptr noundef %28)
  store i1 %29, ptr %3, align 1
  store i32 1, ptr %7, align 4
  br label %64

30:                                               ; preds = %19
  %31 = load ptr, ptr %4, align 8, !tbaa !4
  %32 = getelementptr inbounds nuw %struct.lxb_html_tree, ptr %31, i32 0, i32 10
  store i8 0, ptr %32, align 1, !tbaa !28
  %33 = load ptr, ptr %4, align 8, !tbaa !4
  %34 = getelementptr inbounds nuw %struct.lxb_html_tree, ptr %33, i32 0, i32 15
  %35 = load ptr, ptr %34, align 8, !tbaa !20
  %36 = icmp eq ptr %35, @lxb_html_tree_insertion_mode_in_table
  br i1 %36, label %57, label %37

37:                                               ; preds = %30
  %38 = load ptr, ptr %4, align 8, !tbaa !4
  %39 = getelementptr inbounds nuw %struct.lxb_html_tree, ptr %38, i32 0, i32 15
  %40 = load ptr, ptr %39, align 8, !tbaa !20
  %41 = icmp eq ptr %40, @lxb_html_tree_insertion_mode_in_caption
  br i1 %41, label %57, label %42

42:                                               ; preds = %37
  %43 = load ptr, ptr %4, align 8, !tbaa !4
  %44 = getelementptr inbounds nuw %struct.lxb_html_tree, ptr %43, i32 0, i32 15
  %45 = load ptr, ptr %44, align 8, !tbaa !20
  %46 = icmp eq ptr %45, @lxb_html_tree_insertion_mode_in_table_body
  br i1 %46, label %57, label %47

47:                                               ; preds = %42
  %48 = load ptr, ptr %4, align 8, !tbaa !4
  %49 = getelementptr inbounds nuw %struct.lxb_html_tree, ptr %48, i32 0, i32 15
  %50 = load ptr, ptr %49, align 8, !tbaa !20
  %51 = icmp eq ptr %50, @lxb_html_tree_insertion_mode_in_row
  br i1 %51, label %57, label %52

52:                                               ; preds = %47
  %53 = load ptr, ptr %4, align 8, !tbaa !4
  %54 = getelementptr inbounds nuw %struct.lxb_html_tree, ptr %53, i32 0, i32 15
  %55 = load ptr, ptr %54, align 8, !tbaa !20
  %56 = icmp eq ptr %55, @lxb_html_tree_insertion_mode_in_cell
  br i1 %56, label %57, label %60

57:                                               ; preds = %52, %47, %42, %37, %30
  %58 = load ptr, ptr %4, align 8, !tbaa !4
  %59 = getelementptr inbounds nuw %struct.lxb_html_tree, ptr %58, i32 0, i32 15
  store ptr @lxb_html_tree_insertion_mode_in_select_in_table, ptr %59, align 8, !tbaa !20
  br label %63

60:                                               ; preds = %52
  %61 = load ptr, ptr %4, align 8, !tbaa !4
  %62 = getelementptr inbounds nuw %struct.lxb_html_tree, ptr %61, i32 0, i32 15
  store ptr @lxb_html_tree_insertion_mode_in_select, ptr %62, align 8, !tbaa !20
  br label %63

63:                                               ; preds = %60, %57
  store i1 true, ptr %3, align 1
  store i32 1, ptr %7, align 4
  br label %64

64:                                               ; preds = %63, %25, %16
  call void @llvm.lifetime.end.p0(i64 8, ptr %6) #5
  %65 = load i1, ptr %3, align 1
  ret i1 %65
}