; Function Attrs: inlinehint nounwind uwtable
define internal fastcc zeroext i1 @lxb_html_tree_insertion_mode_in_body_select(ptr noundef %0, ptr noundef %1) unnamed_addr #3 {
  %3 = tail call i32 @lxb_html_tree_active_formatting_reconstruct_elements(ptr noundef %0) #6
  %4 = getelementptr inbounds nuw i8, ptr %0, i64 112
  store i32 %3, ptr %4, align 8, !tbaa !22
  %.not = icmp eq i32 %3, 0
  br i1 %.not, label %7, label %5

5:                                                ; preds = %2
  %6 = tail call zeroext i1 @lxb_html_tree_process_abort(ptr noundef nonnull %0) #6
  br label %21

7:                                                ; preds = %2
  %8 = tail call ptr @lxb_html_tree_insert_foreign_element(ptr noundef nonnull %0, ptr noundef %1, i64 noundef 2) #6
  %9 = icmp eq ptr %8, null
  br i1 %9, label %10, label %12

10:                                               ; preds = %7
  store i32 2, ptr %4, align 8, !tbaa !22
  %11 = tail call zeroext i1 @lxb_html_tree_process_abort(ptr noundef nonnull %0) #6
  br label %21

12:                                               ; preds = %7
  %13 = getelementptr inbounds nuw i8, ptr %0, i64 81
  store i8 0, ptr %13, align 1, !tbaa !25
  %14 = getelementptr inbounds nuw i8, ptr %0, i64 88
  %15 = load ptr, ptr %14, align 8, !tbaa !17
  %16 = icmp eq ptr %15, @lxb_html_tree_insertion_mode_in_table
  %17 = icmp eq ptr %15, @lxb_html_tree_insertion_mode_in_caption
  %or.cond = or i1 %16, %17
  %18 = icmp eq ptr %15, @lxb_html_tree_insertion_mode_in_table_body
  %or.cond19 = or i1 %18, %or.cond
  %19 = icmp eq ptr %15, @lxb_html_tree_insertion_mode_in_row
  %or.cond20 = or i1 %19, %or.cond19
  %20 = icmp eq ptr %15, @lxb_html_tree_insertion_mode_in_cell
  %or.cond21 = or i1 %20, %or.cond20
  %storemerge = select i1 %or.cond21, ptr @lxb_html_tree_insertion_mode_in_select_in_table, ptr @lxb_html_tree_insertion_mode_in_select
  store ptr %storemerge, ptr %14, align 8, !tbaa !17
  br label %21

21:                                               ; preds = %12, %10, %5
  %.0 = phi i1 [ %6, %5 ], [ %11, %10 ], [ true, %12 ]
  ret i1 %.0
}